; Function Attrs: mustprogress nounwind uwtable
define void @_ZN13sentencepiece14NormalizerSpecD2Ev(ptr noundef nonnull align 8 dereferenceable(80) %0) unnamed_addr #8 align 2 personality ptr @__gxx_personality_v0 {
  invoke void @_ZN13sentencepiece14NormalizerSpec10SharedDtorEv(ptr noundef nonnull align 8 dereferenceable(80) %0)
          to label %2 unwind label %23

2:                                                ; preds = %1
  %3 = getelementptr inbounds nuw i8, ptr %0, i64 8
  %4 = load ptr, ptr %3, align 8, !tbaa !3
  %5 = ptrtoint ptr %4 to i64
  %6 = and i64 %5, 1
  %.not.i = icmp eq i64 %6, 0
  br i1 %.not.i, label %_ZN6google8protobuf8internal16InternalMetadata6DeleteINSt7__cxx1112basic_stringIcSt11char_traitsIcESaIcEEEEEvv.exit, label %_ZNK6google8protobuf8internal16InternalMetadata5arenaEv.exit.i

_ZNK6google8protobuf8internal16InternalMetadata5arenaEv.exit.i: ; preds = %2
  %7 = and i64 %5, -2
  %8 = inttoptr i64 %7 to ptr
  %9 = load ptr, ptr %8, align 8, !tbaa !73
  %10 = icmp ne ptr %9, null
  %11 = icmp eq i64 %7, 0
  %or.cond.i = or i1 %11, %10
  br i1 %or.cond.i, label %_ZN6google8protobuf8internal16InternalMetadata6DeleteINSt7__cxx1112basic_stringIcSt11char_traitsIcESaIcEEEEEvv.exit, label %12

12:                                               ; preds = %_ZNK6google8protobuf8internal16InternalMetadata5arenaEv.exit.i
  %13 = getelementptr inbounds nuw i8, ptr %8, i64 8
  %14 = load ptr, ptr %13, align 8, !tbaa !36
  %15 = getelementptr inbounds nuw i8, ptr %8, i64 24
  %16 = icmp eq ptr %14, %15
  br i1 %16, label %_ZNKSt7__cxx1112basic_stringIcSt11char_traitsIcESaIcEE11_M_is_localEv.exit.thread.i.i.i.i, label %_ZNKSt7__cxx1112basic_stringIcSt11char_traitsIcESaIcEE11_M_is_localEv.exit.i.i.i.i

_ZNKSt7__cxx1112basic_stringIcSt11char_traitsIcESaIcEE11_M_is_localEv.exit.thread.i.i.i.i: ; preds = %12
  %17 = getelementptr inbounds nuw i8, ptr %8, i64 16
  %18 = load i64, ptr %17, align 8, !tbaa !41
  %19 = icmp ult i64 %18, 16
  tail call void @llvm.assume(i1 %19)
  br label %_ZN6google8protobuf8internal16InternalMetadata9ContainerINSt7__cxx1112basic_stringIcSt11char_traitsIcESaIcEEEED2Ev.exit.i

_ZNKSt7__cxx1112basic_stringIcSt11char_traitsIcESaIcEE11_M_is_localEv.exit.i.i.i.i: ; preds = %12
  %20 = load i64, ptr %15, align 8, !tbaa !67
  %21 = add i64 %20, 1
  tail call void @_ZdlPvm(ptr noundef %14, i64 noundef %21) #27
  br label %_ZN6google8protobuf8internal16InternalMetadata9ContainerINSt7__cxx1112basic_stringIcSt11char_traitsIcESaIcEEEED2Ev.exit.i

_ZN6google8protobuf8internal16InternalMetadata9ContainerINSt7__cxx1112basic_stringIcSt11char_traitsIcESaIcEEEED2Ev.exit.i: ; preds = %_ZNKSt7__cxx1112basic_stringIcSt11char_traitsIcESaIcEE11_M_is_localEv.exit.i.i.i.i, %_ZNKSt7__cxx1112basic_stringIcSt11char_traitsIcESaIcEE11_M_is_localEv.exit.thread.i.i.i.i
  tail call void @_ZdlPvm(ptr noundef nonnull %8, i64 noundef 40) #27
  br label %_ZN6google8protobuf8internal16InternalMetadata6DeleteINSt7__cxx1112basic_stringIcSt11char_traitsIcESaIcEEEEEvv.exit

_ZN6google8protobuf8internal16InternalMetadata6DeleteINSt7__cxx1112basic_stringIcSt11char_traitsIcESaIcEEEEEvv.exit: ; preds = %_ZN6google8protobuf8internal16InternalMetadata9ContainerINSt7__cxx1112basic_stringIcSt11char_traitsIcESaIcEEEED2Ev.exit.i, %_ZNK6google8protobuf8internal16InternalMetadata5arenaEv.exit.i, %2
  %22 = getelementptr inbounds nuw i8, ptr %0, i64 16
  tail call void @_ZN6google8protobuf8internal12ExtensionSetD1Ev(ptr noundef nonnull align 8 dereferenceable(24) %22) #25
  ret void

23:                                               ; preds = %1
  %24 = landingpad { ptr, i32 }
          catch ptr null
  %25 = extractvalue { ptr, i32 } %24, 0
  tail call void @__clang_call_terminate(ptr %25) #28
  unreachable
}